target datalayout = "e-m:e-p270:32:32-p271:32:32-p272:64:64-i64:64-i128:128-f80:128-n8:16:32:64-S128"
target triple = "x86_64-pc-linux-gnu"

%struct.pkcs7_st = type { ptr, i64, i32, i32, ptr, %union.anon, %struct.PKCS7_CTX_st }
%union.anon = type { ptr }
%struct.PKCS7_CTX_st = type { ptr, ptr }
%struct.asn1_type_st = type { i32, %union.anon.0 }
%union.anon.0 = type { ptr }

; Function Attrs: nounwind uwtable
define i32 @PKCS7_type_is_other(ptr noundef %0) #0 {
  %2 = alloca ptr, align 8
  %3 = alloca i32, align 4
  %4 = alloca i32, align 4
  store ptr %0, ptr %2, align 8, !tbaa !3
  call void @llvm.lifetime.start.p0(i64 4, ptr %3) #5
  store i32 1, ptr %3, align 4, !tbaa !8
  call void @llvm.lifetime.start.p0(i64 4, ptr %4) #5
  %5 = load ptr, ptr %2, align 8, !tbaa !3
  %6 = getelementptr inbounds nuw %struct.pkcs7_st, ptr %5, i32 0, i32 4
  %7 = load ptr, ptr %6, align 8, !tbaa !10
  %8 = call i32 @OBJ_obj2nid(ptr noundef %7)
  store i32 %8, ptr %4, align 4, !tbaa !8
  %9 = load i32, ptr %4, align 4, !tbaa !8
  switch i32 %9, label %11 [
    i32 21, label %10
    i32 22, label %10
    i32 23, label %10
    i32 24, label %10
    i32 25, label %10
    i32 26, label %10
  ]

10:                                               ; preds = %1, %1, %1, %1, %1, %1
  store i32 0, ptr %3, align 4, !tbaa !8
  br label %12

11:                                               ; preds = %1
  store i32 1, ptr %3, align 4, !tbaa !8
  br label %12

12:                                               ; preds = %11, %10
  %13 = load i32, ptr %3, align 4, !tbaa !8
  call void @llvm.lifetime.end.p0(i64 4, ptr %4) #5
  call void @llvm.lifetime.end.p0(i64 4, ptr %3) #5
  ret i32 %13
}

; Function Attrs: nounwind uwtable
define ptr @PKCS7_get_octet_string(ptr noundef %0) #0 {
  %2 = alloca ptr, align 8
  %3 = alloca ptr, align 8
  store ptr %0, ptr %3, align 8, !tbaa !3
  %4 = load ptr, ptr %3, align 8, !tbaa !3
  %5 = getelementptr inbounds nuw %struct.pkcs7_st, ptr %4, i32 0, i32 4
  %6 = load ptr, ptr %5, align 8, !tbaa !10
  %7 = call i32 @OBJ_obj2nid(ptr noundef %6)
  %8 = icmp eq i32 %7, 21
  br i1 %8, label %9, label %13

9:                                                ; preds = %1
  %10 = load ptr, ptr %3, align 8, !tbaa !3
  %11 = getelementptr inbounds nuw %struct.pkcs7_st, ptr %10, i32 0, i32 5
  %12 = load ptr, ptr %11, align 8, !tbaa !17
  store ptr %12, ptr %2, align 8
  br label %36

13:                                               ; preds = %1
  %14 = load ptr, ptr %3, align 8, !tbaa !3
  %15 = call i32 @PKCS7_type_is_other(ptr noundef %14)
  %16 = icmp ne i32 %15, 0
  br i1 %16, label %17, label %35

17:                                               ; preds = %13
  %18 = load ptr, ptr %3, align 8, !tbaa !3
  %19 = getelementptr inbounds nuw %struct.pkcs7_st, ptr %18, i32 0, i32 5
  %20 = load ptr, ptr %19, align 8, !tbaa !17
  %21 = icmp ne ptr %20, null
  br i1 %21, label %22, label %35

22:                                               ; preds = %17
  %23 = load ptr, ptr %3, align 8, !tbaa !3
  %24 = getelementptr inbounds nuw %struct.pkcs7_st, ptr %23, i32 0, i32 5
  %25 = load ptr, ptr %24, align 8, !tbaa !17
  %26 = getelementptr inbounds nuw %struct.asn1_type_st, ptr %25, i32 0, i32 0
  %27 = load i32, ptr %26, align 8, !tbaa !18
  %28 = icmp eq i32 %27, 4
  br i1 %28, label %29, label %35

29:                                               ; preds = %22
  %30 = load ptr, ptr %3, align 8, !tbaa !3
  %31 = getelementptr inbounds nuw %struct.pkcs7_st, ptr %30, i32 0, i32 5
  %32 = load ptr, ptr %31, align 8, !tbaa !17
  %33 = getelementptr inbounds nuw %struct.asn1_type_st, ptr %32, i32 0, i32 1
  %34 = load ptr, ptr %33, align 8, !tbaa !17
  store ptr %34, ptr %2, align 8
  br label %36

35:                                               ; preds = %22, %17, %13
  store ptr null, ptr %2, align 8
  br label %36

36:                                               ; preds = %35, %29, %9
  %37 = load ptr, ptr %2, align 8
  ret ptr %37
}