; Function Attrs: nounwind uwtable
define ptr @PKCS7_get_octet_string(ptr noundef readonly captures(none) %0) local_unnamed_addr #0 {
  %2 = getelementptr inbounds nuw i8, ptr %0, i64 24
  %3 = load ptr, ptr %2, align 8, !tbaa !3
  %4 = tail call i32 @OBJ_obj2nid(ptr noundef %3) #4
  %5 = icmp eq i32 %4, 21
  br i1 %5, label %6, label %9

6:                                                ; preds = %1
  %7 = getelementptr inbounds nuw i8, ptr %0, i64 32
  %8 = load ptr, ptr %7, align 8, !tbaa !14
  br label %22

9:                                                ; preds = %1
  %10 = load ptr, ptr %2, align 8, !tbaa !3
  %11 = tail call i32 @OBJ_obj2nid(ptr noundef %10) #4
  %12 = add i32 %11, -21
  %switch.i = icmp ult i32 %12, 6
  br i1 %switch.i, label %22, label %13

13:                                               ; preds = %9
  %14 = getelementptr inbounds nuw i8, ptr %0, i64 32
  %15 = load ptr, ptr %14, align 8, !tbaa !14
  %.not8 = icmp eq ptr %15, null
  br i1 %.not8, label %22, label %16

16:                                               ; preds = %13
  %17 = load i32, ptr %15, align 8, !tbaa !15
  %18 = icmp eq i32 %17, 4
  br i1 %18, label %19, label %22

19:                                               ; preds = %16
  %20 = getelementptr inbounds nuw i8, ptr %15, i64 8
  %21 = load ptr, ptr %20, align 8, !tbaa !14
  br label %22

22:                                               ; preds = %9, %13, %16, %19, %6
  %.0 = phi ptr [ %8, %6 ], [ %21, %19 ], [ null, %16 ], [ null, %13 ], [ null, %9 ]
  ret ptr %.0
}